; Function Attrs: mustprogress uwtable
define internal fastcc noundef zeroext i1 @_ZNK12_GLOBAL__N_120elim_small_bv_tactic6rw_cfg18max_steps_exceededEy(ptr nocapture noundef nonnull readonly align 8 dereferenceable(120) %this, i64 noundef %num_steps) unnamed_addr #3 align 2 personality ptr @__gxx_personality_v0 {
entry:
  %ref.tmp = alloca %"class.std::__cxx11::basic_string", align 8
  %ref.tmp4 = alloca %"class.std::allocator", align 1
  %m_max_steps = getelementptr inbounds i8, ptr %this, i64 72
  %0 = load i64, ptr %m_max_steps, align 8
  %cmp = icmp ult i64 %0, %num_steps
  br i1 %cmp, label %return, label %if.end

if.end:                                           ; preds = %entry
  %call = tail call noundef i64 @_ZN6memory19get_allocation_sizeEv()
  %m_max_memory = getelementptr inbounds i8, ptr %this, i64 80
  %1 = load i64, ptr %m_max_memory, align 8
  %cmp2 = icmp ugt i64 %call, %1
  br i1 %cmp2, label %if.then3, label %return

if.then3:                                         ; preds = %if.end
  %exception = tail call ptr @__cxa_allocate_exception(i64 40) #15
  %2 = load ptr, ptr @_ZN11common_msgs16g_max_memory_msgE, align 8
  call void @_ZNSaIcEC1Ev(ptr noundef nonnull align 1 dereferenceable(1) %ref.tmp4) #15
  invoke void @_ZNSt7__cxx1112basic_stringIcSt11char_traitsIcESaIcEEC2IS3_EEPKcRKS3_(ptr noundef nonnull align 8 dereferenceable(32) %ref.tmp, ptr noundef %2, ptr noundef nonnull align 1 dereferenceable(1) %ref.tmp4)
          to label %invoke.cont unwind label %cleanup.action

invoke.cont:                                      ; preds = %if.then3
  store ptr getelementptr inbounds ({ [6 x ptr] }, ptr @_ZTV16tactic_exception, i64 0, i32 0, i64 2), ptr %exception, align 8
  %m_msg.i = getelementptr inbounds i8, ptr %exception, i64 8
  call void @_ZNSt7__cxx1112basic_stringIcSt11char_traitsIcESaIcEEC1EOS4_(ptr noundef nonnull align 8 dereferenceable(32) %m_msg.i, ptr noundef nonnull align 8 dereferenceable(32) %ref.tmp) #15
  invoke void @__cxa_throw(ptr nonnull %exception, ptr nonnull @_ZTI16tactic_exception, ptr nonnull @_ZN16tactic_exceptionD2Ev) #18
          to label %unreachable unwind label %ehcleanup

ehcleanup:                                        ; preds = %invoke.cont
  %3 = landingpad { ptr, i32 }
          cleanup
  call void @_ZNSt7__cxx1112basic_stringIcSt11char_traitsIcESaIcEED1Ev(ptr noundef nonnull align 8 dereferenceable(32) %ref.tmp) #15
  call void @_ZNSaIcED1Ev(ptr noundef nonnull align 1 dereferenceable(1) %ref.tmp4) #15
  br label %eh.resume

cleanup.action:                                   ; preds = %if.then3
  %4 = landingpad { ptr, i32 }
          cleanup
  call void @_ZNSaIcED1Ev(ptr noundef nonnull align 1 dereferenceable(1) %ref.tmp4) #15
  call void @__cxa_free_exception(ptr %exception) #15
  br label %eh.resume

return:                                           ; preds = %if.end, %entry
  ret i1 %cmp

eh.resume:                                        ; preds = %ehcleanup, %cleanup.action
  %.pn4 = phi { ptr, i32 } [ %3, %ehcleanup ], [ %4, %cleanup.action ]
  resume { ptr, i32 } %.pn4

unreachable:                                      ; preds = %invoke.cont
  unreachable
}